target datalayout = "e-m:e-p270:32:32-p271:32:32-p272:64:64-i64:64-i128:128-f80:128-n8:16:32:64-S128"
target triple = "x86_64-pc-linux-gnu"

%struct.ossl_store_info_st = type { i32, %union.anon.3 }
%union.anon.3 = type { %struct.anon.4 }
%struct.anon.4 = type { ptr, ptr }

; Function Attrs: nounwind uwtable
define ptr @OSSL_STORE_INFO_get0_CERT(ptr noundef %0) #0 {
  %2 = alloca ptr, align 8
  %3 = alloca ptr, align 8
  store ptr %0, ptr %3, align 8, !tbaa !77
  %4 = load ptr, ptr %3, align 8, !tbaa !77
  %5 = getelementptr inbounds nuw %struct.ossl_store_info_st, ptr %4, i32 0, i32 0
  %6 = load i32, ptr %5, align 8, !tbaa !88
  %7 = icmp eq i32 %6, 5
  br i1 %7, label %8, label %12

8:                                                ; preds = %1
  %9 = load ptr, ptr %3, align 8, !tbaa !77
  %10 = getelementptr inbounds nuw %struct.ossl_store_info_st, ptr %9, i32 0, i32 1
  %11 = load ptr, ptr %10, align 8, !tbaa !25
  store ptr %11, ptr %2, align 8
  br label %13

12:                                               ; preds = %1
  store ptr null, ptr %2, align 8
  br label %13

13:                                               ; preds = %12, %8
  %14 = load ptr, ptr %2, align 8
  ret ptr %14
}